target datalayout = "e-m:e-p270:32:32-p271:32:32-p272:64:64-i64:64-i128:128-f80:128-n8:16:32:64-S128"
target triple = "x86_64-pc-linux-gnu"

%"class.std::ios_base::Init" = type { i8 }

@_ZStL8__ioinit = internal global %"class.std::ios_base::Init" zeroinitializer, align 1
@__dso_handle = external hidden global i8
@_ZN7cvflann20flann_distance_type_E = hidden global i32 1, align 4
@.str = private unnamed_addr constant [114 x i8] c"[WARNING] The cvflann::set_distance_type function is deperecated, use cv::flann::GenericIndex<Distance> instead.\0A\00", align 1
@.str.1 = private unnamed_addr constant [175 x i8] c"[ERROR] cvflann::set_distance_type only provides backwards compatibility for the L1 and L2 distances. For other distance types you must use cv::flann::GenericIndex<Distance>\0A\00", align 1
@llvm.global_ctors = appending global [1 x { i32, ptr, ptr }] [{ i32, ptr, ptr } { i32 65535, ptr @_GLOBAL__sub_I_flann.cpp, ptr null }]

; Function Attrs: uwtable
define internal void @__cxx_global_var_init() #0 section ".text.startup" {
  call void @_ZNSt8ios_base4InitC1Ev(ptr noundef nonnull align 1 dereferenceable(1) @_ZStL8__ioinit)
  %1 = call i32 @__cxa_atexit(ptr @_ZNSt8ios_base4InitD1Ev, ptr @_ZStL8__ioinit, ptr @__dso_handle) #3
  ret void
}

declare void @_ZNSt8ios_base4InitC1Ev(ptr noundef nonnull align 1 dereferenceable(1)) unnamed_addr #1

; Function Attrs: nounwind
declare void @_ZNSt8ios_base4InitD1Ev(ptr noundef nonnull align 1 dereferenceable(1)) unnamed_addr #2

; Function Attrs: nounwind
declare i32 @__cxa_atexit(ptr, ptr, ptr) #3

; Function Attrs: mustprogress nounwind uwtable
define noundef i32 @_ZN7cvflann19flann_distance_typeEv() #4 {
  %1 = load i32, ptr @_ZN7cvflann20flann_distance_type_E, align 4, !tbaa !3
  ret i32 %1
}

; Function Attrs: mustprogress uwtable
define void @_ZN7cvflann17set_distance_typeENS_16flann_distance_tEi(i32 noundef %0, i32 noundef %1) #5 {
  %3 = alloca i32, align 4
  %4 = alloca i32, align 4
  store i32 %0, ptr %3, align 4, !tbaa !3
  store i32 %1, ptr %4, align 4, !tbaa !7
  %5 = call i32 (ptr, ...) @printf(ptr noundef @.str)
  %6 = load i32, ptr %3, align 4, !tbaa !3
  %7 = icmp ne i32 %6, 2
  br i1 %7, label %8, label %13

8:                                                ; preds = %2
  %9 = load i32, ptr %3, align 4, !tbaa !3
  %10 = icmp ne i32 %9, 1
  br i1 %10, label %11, label %13

11:                                               ; preds = %8
  %12 = call i32 (ptr, ...) @printf(ptr noundef @.str.1)
  br label %13

13:                                               ; preds = %11, %8, %2
  %14 = load i32, ptr %3, align 4, !tbaa !3
  store i32 %14, ptr @_ZN7cvflann20flann_distance_type_E, align 4, !tbaa !3
  ret void
}

declare i32 @printf(ptr noundef, ...) #1

; Function Attrs: uwtable
define internal void @_GLOBAL__sub_I_flann.cpp() #0 section ".text.startup" {
  call void @__cxx_global_var_init()
  ret void
}


!llvm.module.flags = !{!0, !1, !2}

!0 = !{i32 1, !"wchar_size", i32 4}
!1 = !{i32 8, !"PIC Level", i32 2}
!2 = !{i32 7, !"uwtable", i32 2}
!3 = !{!4, !4, i64 0}
!4 = !{!"_ZTSN7cvflann16flann_distance_tE", !5, i64 0}
!5 = !{!"omnipotent char", !6, i64 0}
!6 = !{!"Simple C++ TBAA"}
!7 = !{!8, !8, i64 0}
!8 = !{!"int", !5, i64 0}
