; ModuleID = 'bench/opencv/original/flann.ll'
source_filename = "bench/opencv/original/flann.ll"
target datalayout = "e-m:e-p270:32:32-p271:32:32-p272:64:64-i64:64-i128:128-f80:128-n8:16:32:64-S128"
target triple = "x86_64-pc-linux-gnu"

%"class.std::ios_base::Init" = type { i8 }

@_ZStL8__ioinit = internal global %"class.std::ios_base::Init" zeroinitializer, align 1
@__dso_handle = external hidden global i8
@_ZN7cvflann20flann_distance_type_E = hidden local_unnamed_addr global i32 1, align 4
@llvm.global_ctors = appending global [1 x { i32, ptr, ptr }] [{ i32, ptr, ptr } { i32 65535, ptr @_GLOBAL__sub_I_flann.cpp, ptr null }]
@str = private unnamed_addr constant [113 x i8] c"[WARNING] The cvflann::set_distance_type function is deperecated, use cv::flann::GenericIndex<Distance> instead.\00", align 1
@str.1 = private unnamed_addr constant [174 x i8] c"[ERROR] cvflann::set_distance_type only provides backwards compatibility for the L1 and L2 distances. For other distance types you must use cv::flann::GenericIndex<Distance>\00", align 1

declare void @_ZNSt8ios_base4InitC1Ev(ptr noundef nonnull align 1 dereferenceable(1)) unnamed_addr #0

; Function Attrs: nounwind
declare void @_ZNSt8ios_base4InitD1Ev(ptr noundef nonnull align 1 dereferenceable(1)) unnamed_addr #1

; Function Attrs: nofree nounwind
declare i32 @__cxa_atexit(ptr, ptr, ptr) local_unnamed_addr #2

; Function Attrs: mustprogress nofree norecurse nosync nounwind willreturn memory(read, argmem: none, inaccessiblemem: none) uwtable
define noundef i32 @_ZN7cvflann19flann_distance_typeEv() local_unnamed_addr #3 {
  %1 = load i32, ptr @_ZN7cvflann20flann_distance_type_E, align 4, !tbaa !3
  ret i32 %1
}

; Function Attrs: mustprogress nofree nounwind uwtable
define void @_ZN7cvflann17set_distance_typeENS_16flann_distance_tEi(i32 noundef %0, i32 noundef %1) local_unnamed_addr #4 {
  %puts = tail call i32 @puts(ptr nonnull dereferenceable(1) @str)
  %3 = add i32 %0, -3
  %or.cond = icmp ult i32 %3, -2
  br i1 %or.cond, label %4, label %5

4:                                                ; preds = %2
  %puts4 = tail call i32 @puts(ptr nonnull dereferenceable(1) @str.1)
  br label %5

5:                                                ; preds = %4, %2
  store i32 %0, ptr @_ZN7cvflann20flann_distance_type_E, align 4, !tbaa !3
  ret void
}

; Function Attrs: uwtable
define internal void @_GLOBAL__sub_I_flann.cpp() #5 section ".text.startup" {
  tail call void @_ZNSt8ios_base4InitC1Ev(ptr noundef nonnull align 1 dereferenceable(1) @_ZStL8__ioinit)
  %1 = tail call i32 @__cxa_atexit(ptr nonnull @_ZNSt8ios_base4InitD1Ev, ptr nonnull @_ZStL8__ioinit, ptr nonnull @__dso_handle) #6
  ret void
}

; Function Attrs: nofree nounwind
declare noundef i32 @puts(ptr noundef readonly captures(none)) local_unnamed_addr #2


!llvm.module.flags = !{!0, !1, !2}

!0 = !{i32 1, !"wchar_size", i32 4}
!1 = !{i32 8, !"PIC Level", i32 2}
!2 = !{i32 7, !"uwtable", i32 2}
!3 = !{!4, !4, i64 0}
!4 = !{!"_ZTSN7cvflann16flann_distance_tE", !5, i64 0}
!5 = !{!"omnipotent char", !6, i64 0}
!6 = !{!"Simple C++ TBAA"}
